; Function Attrs: mustprogress uwtable
define internal fastcc void @_ZN6google8protobuf8compiler12_GLOBAL__N_110PluginNameB5cxx11ESt17basic_string_viewIcSt11char_traitsIcEES6_(ptr noalias align 8 %agg.result, i64 %plugin_prefix.coerce0, ptr %plugin_prefix.coerce1, i64 %directive.coerce0, ptr %directive.coerce1) unnamed_addr #5 personality ptr @__gxx_personality_v0 {
entry:
  %ref.tmp = alloca %"class.absl::lts_20230802::AlphaNum", align 8
  %ref.tmp1 = alloca %"class.absl::lts_20230802::AlphaNum", align 8
  %ref.tmp2 = alloca %"class.absl::lts_20230802::AlphaNum", align 8
  store i64 %plugin_prefix.coerce0, ptr %ref.tmp, align 8
  %pc.sroa.2.0.piece_.sroa_idx.i = getelementptr inbounds i8, ptr %ref.tmp, i64 8
  store ptr %plugin_prefix.coerce1, ptr %pc.sroa.2.0.piece_.sroa_idx.i, align 8
  store i64 4, ptr %ref.tmp1, align 8
  %0 = getelementptr inbounds i8, ptr %ref.tmp1, i64 8
  store ptr @.str.170, ptr %0, align 8
  %cmp.i.i = icmp ult i64 %directive.coerce0, 2
  br i1 %cmp.i.i, label %if.then.i.i, label %_ZNKSt17basic_string_viewIcSt11char_traitsIcEE6substrEmm.exit

if.then.i.i:                                      ; preds = %entry
  tail call void (ptr, ...) @_ZSt24__throw_out_of_range_fmtPKcz(ptr noundef nonnull @.str.166, ptr noundef nonnull @.str.165, i64 noundef 2, i64 noundef %directive.coerce0) #35
  unreachable

_ZNKSt17basic_string_viewIcSt11char_traitsIcEE6substrEmm.exit: ; preds = %entry
  %sub = add i64 %directive.coerce0, -6
  %sub.i = add i64 %directive.coerce0, -2
  %.sroa.speculated.i = tail call i64 @llvm.umin.i64(i64 %sub.i, i64 %sub)
  %add.ptr.i = getelementptr inbounds i8, ptr %directive.coerce1, i64 2
  store i64 %.sroa.speculated.i, ptr %ref.tmp2, align 8
  %pc.sroa.2.0.piece_.sroa_idx.i1 = getelementptr inbounds i8, ptr %ref.tmp2, i64 8
  store ptr %add.ptr.i, ptr %pc.sroa.2.0.piece_.sroa_idx.i1, align 8
  call void @_ZN4absl12lts_202308026StrCatB5cxx11ERKNS0_8AlphaNumES3_S3_(ptr sret(%"class.std::__cxx11::basic_string") align 8 %agg.result, ptr noundef nonnull align 8 dereferenceable(48) %ref.tmp, ptr noundef nonnull align 8 dereferenceable(48) %ref.tmp1, ptr noundef nonnull align 8 dereferenceable(48) %ref.tmp2)
  ret void
}